(dp1
S'5549829'
p2
(I2384485
I2387888
tp3
sS'5275518'
p4
(I0
I3886
tp5
sS'6681996'
p6
(I2387893
I2390630
tp7
sS'5275513'
p8
(I3891
I6628
tp9
sS'5971890'
p10
(I2393285
I2396526
tp11
sS'6681992'
p12
(I2396531
I2399820
tp13
sS'5333268'
p14
(I9305
I12138
tp15
sS'6957178'
p16
(I2287051
I2290064
tp17
sS'6599453'
p18
(I2404824
I2408043
tp19
sS'7926271'
p20
(I111311
I114508
tp21
sS'7508287'
p22
(I12143
I15248
tp23
sS'6599456'
p24
(I2413213
I2415262
tp25
sS'6381087'
p26
(I15253
I17438
tp27
sS'6381084'
p28
(I17443
I20272
tp29
sS'7917847'
p30
(I183825
I186860
tp31
sS'6381082'
p32
(I23019
I26032
tp33
sS'6381081'
p34
(I26037
I28660
tp35
sS'7805906'
p36
(I241190
I244685
tp37
sS'7805907'
p38
(I252278
I255177
tp39
sS'5340569'
p40
(I2415267
I2417497
tp41
sS'5919809'
p42
(I2417502
I2420471
tp43
sS'7227723'
p44
(I28665
I31218
tp45
sS'5882147'
p46
(I2422828
I2425841
tp47
sS'5340567'
p48
(I2425846
I2427524
tp49
sS'7227728'
p50
(I31223
I33754
tp51
sS'7845540'
p52
(I33759
I36680
tp53
sS'6607668'
p54
(I337754
I340120
tp55
sS'5340563'
p56
(I2432595
I2434457
tp57
sS'7799774'
p58
(I352640
I355307
tp59
sS'9106787'
p60
(I366280
I369039
tp61
sS'6046587'
p62
(I374160
I376486
tp63
sS'7158700'
p64
(I39497
I42120
tp65
sS'5348772'
p66
(I2438818
I2440814
tp67
sS'9106789'
p68
(I434010
I436148
tp69
sS'6961746'
p70
(I2440819
I2443648
tp71
sS'6437209'
p72
(I2446005
I2448628
tp73
sS'6429760'
p74
(I45765
I48204
tp75
sS'5321259'
p76
(I48209
I50670
tp77
sS'6429765'
p78
(I50675
I53022
tp79
sS'7677608'
p80
(I53027
I56798
tp81
sS'6039965'
p82
(I56803
I59563
tp83
sS'7677606'
p84
(I59568
I62099
tp85
sS'5321252'
p86
(I62104
I64334
tp87
sS'7677604'
p88
(I64339
I67764
tp89
sS'7572975'
p90
(I67769
I70322
tp91
sS'7572972'
p92
(I70327
I73064
tp93
sS'5416620'
p94
(I73069
I75001
tp95
sS'7934671'
p96
(I75006
I77261
tp97
sS'5549825'
p98
(I2399825
I2402375
tp99
sS'9037242'
p100
(I77266
I79084
tp101
sS'6088068'
p102
(I81073
I82843
tp103
sS'9037247'
p104
(I82848
I85493
tp105
sS'9037245'
p106
(I85498
I88235
tp107
sS'6088063'
p108
(I88240
I91161
tp109
sS'6395322'
p110
(I91166
I94157
tp111
sS'9037248'
p112
(I94162
I97013
tp113
sS'9037249'
p114
(I97018
I99387
tp115
sS'9113584'
p116
(I2460320
I2462458
tp117
sS'5174876'
p118
(I2462463
I2465178
tp119
sS'5174875'
p120
(I2465183
I2467898
tp121
sS'5174874'
p122
(I2467903
I2470526
tp123
sS'7994129'
p124
(I99392
I101301
tp125
sS'7994128'
p126
(I101306
I104044
tp127
sS'7173928'
p128
(I104049
I107062
tp129
sS'5334128'
p130
(I107067
I108954
tp131
sS'9146032'
p132
(I2478434
I2480734
tp133
sS'9146033'
p134
(I2480739
I2483476
tp135
sS'9069218'
p136
(I108959
I111306
tp137
sS'6599452'
p138
(I2408048
I2410789
tp139
sS'7994121'
p140
(I668430
I670777
tp141
sS'7994120'
p142
(I116589
I119120
tp143
sS'7994123'
p144
(I119125
I121933
tp145
sS'7994122'
p146
(I121938
I124951
tp147
sS'9069212'
p148
(I124956
I127509
tp149
sS'7785106'
p150
(I2489698
I2492115
tp151
sS'5334125'
p152
(I127514
I129446
tp153
sS'6955159'
p154
(I2495090
I2498195
tp155
sS'7958459'
p156
(I2498200
I2500845
tp157
sS'7958458'
p158
(I2500850
I2504600
tp159
sS'5114344'
p160
(I132193
I134930
tp161
sS'5114341'
p162
(I134935
I138154
tp163
sS'7958451'
p164
(I2507804
I2510287
tp165
sS'7958450'
p166
(I2510292
I2512246
tp167
sS'7958453'
p168
(I2512251
I2514322
tp169
sS'6646330'
p170
(I140603
I142763
tp171
sS'7958456'
p172
(I2517665
I2520586
tp173
sS'9133495'
p174
(I142768
I145550
tp175
sS'9133496'
p176
(I145555
I147899
tp177
sS'7933378'
p178
(I147904
I150134
tp179
sS'6391365'
p180
(I2520591
I2523972
tp181
sS'7998049'
p182
(I296373
I298511
tp183
sS'6056515'
p184
(I150139
I152026
tp185
sS'7933371'
p186
(I152031
I155758
tp187
sS'9133498'
p188
(I155763
I157717
tp189
sS'9133499'
p190
(I157722
I160253
tp191
sS'7933375'
p192
(I160258
I163198
tp193
sS'7933374'
p194
(I163203
I166102
tp195
sS'7195504'
p196
(I2535219
I2537956
tp197
sS'7917843'
p198
(I166107
I169510
tp199
sS'9060854'
p200
(I1428510
I1430787
tp201
sS'6461862'
p202
(I169515
I172230
tp203
sS'7705577'
p204
(I1008997
I1012191
tp205
sS'6461861'
p206
(I172235
I174468
tp207
sS'7977340'
p208
(I1022289
I1025854
tp209
sS'5201083'
p210
(I174473
I177876
tp211
sS'7497602'
p212
(I1609372
I1612131
tp213
sS'7921727'
p214
(I180785
I183820
tp215
sS'7921724'
p216
(I186865
I190566
tp217
sS'7921723'
p218
(I190571
I194272
tp219
sS'6911346'
p220
(I194277
I197290
tp221
sS'6541502'
p222
(I197295
I200286
tp223
sS'7917846'
p224
(I200291
I203326
tp225
sS'6421175'
p226
(I206165
I208053
tp227
sS'5772356'
p228
(I2530150
I2531828
tp229
sS'5629903'
p230
(I208058
I211277
tp231
sS'6421170'
p232
(I211282
I213538
tp233
sS'5781468'
p234
(I213543
I216671
tp235
sS'5781469'
p236
(I216676
I219366
tp237
sS'5564102'
p238
(I219371
I221556
tp239
sS'5781467'
p240
(I221561
I224229
tp241
sS'5781464'
p242
(I224234
I227476
tp243
sS'5781465'
p244
(I227481
I230425
tp245
sS'5564106'
p246
(I230430
I232777
tp247
sS'5781463'
p248
(I232782
I235726
tp249
sS'5564104'
p250
(I235731
I239042
tp251
sS'5564105'
p252
(I239047
I241185
tp253
sS'7759993'
p254
(I2559145
I2561330
tp255
sS'5330163'
p256
(I2561335
I2563498
tp257
sS'5917767'
p258
(I244690
I247152
tp259
sS'7944418'
p260
(I2566429
I2569027
tp261
sS'7944419'
p262
(I2569032
I2571490
tp263
sS'6433795'
p264
(I249326
I252273
tp265
sS'7581467'
p266
(I2571495
I2574990
tp267
sS'9153517'
p268
(I1354088
I1356939
tp269
sS'9153516'
p270
(I1356944
I1359589
tp271
sS'6938537'
p272
(I2579420
I2582845
tp273
sS'5636749'
p274
(I1623905
I1626388
tp275
sS'9153513'
p276
(I1379309
I1381079
tp277
sS'5965442'
p278
(I2587345
I2589968
tp279
sS'7581230'
p280
(I1402340
I1405353
tp281
sS'5922619'
p282
(I2531833
I2535214
tp283
sS'7936582'
p284
(I2596307
I2598239
tp285
sS'9077064'
p286
(I1410776
I1413697
tp287
sS'9077065'
p288
(I1420791
I1423528
tp289
sS'9077062'
p290
(I1430792
I1432816
tp291
sS'7936586'
p292
(I2603773
I2606856
tp293
sS'7936584'
p294
(I2606861
I2609322
tp295
sS'7936589'
p296
(I2612665
I2615402
tp297
sS'5802267'
p298
(I269717
I272958
tp299
sS'6375325'
p300
(I780298
I782667
tp301
sS'5802261'
p302
(I272963
I275424
tp303
sS'6509292'
p304
(I1526082
I1529393
tp305
sS'9077069'
p306
(I1540382
I1543303
tp307
sS'7118976'
p308
(I2623424
I2625863
tp309
sS'7118974'
p310
(I2625868
I2628329
tp311
sS'6682789'
p312
(I275429
I278188
tp313
sS'7118972'
p314
(I2631168
I2633791
tp315
sS'9036114'
p316
(I1600080
I1602335
tp317
sS'5145700'
p318
(I1995511
I1997649
tp319
sS'7949707'
p320
(I1626393
I1629314
tp321
sS'6738759'
p322
(I2636792
I2639827
tp323
sS'7575215'
p324
(I281579
I284798
tp325
sS'6682786'
p326
(I284803
I287242
tp327
sS'6496005'
p328
(I1658744
I1661390
tp329
sS'9081957'
p330
(I287247
I289708
tp331
sS'9116036'
p332
(I2647389
I2650332
tp333
sS'5311775'
p334
(I289713
I292035
tp335
sS'6167262'
p336
(I2652873
I2655287
tp337
sS'9081953'
p338
(I292040
I293994
tp339
sS'5766600'
p340
(I293999
I296368
tp341
sS'6143574'
p342
(I2655292
I2657823
tp343
sS'9022545'
p344
(I298516
I300679
tp345
sS'9022543'
p346
(I300684
I302961
tp347
sS'9022542'
p348
(I302966
I305313
tp349
sS'5311779'
p350
(I305318
I307118
tp351
sS'5311778'
p352
(I307123
I310276
tp353
sS'6095955'
p354
(I310281
I312720
tp355
sS'7000813'
p356
(I1637544
I1640119
tp357
sS'7386195'
p358
(I314617
I317928
tp359
sS'5790359'
p360
(I2556285
I2559140
tp361
sS'7213955'
p362
(I317933
I320490
tp363
sS'5962142'
p364
(I2674395
I2676993
tp365
sS'7585003'
p366
(I320495
I323784
tp367
sS'6147281'
p368
(I323789
I326710
tp369
sS'6095958'
p370
(I326715
I329360
tp371
sS'7317984'
p372
(I329365
I332036
tp373
sS'7317987'
p374
(I334276
I337749
tp375
sS'5340562'
p376
(I2430820
I2432590
tp377
sS'5606772'
p378
(I340125
I343252
tp379
sS'7885274'
p380
(I343257
I345141
tp381
sS'7589656'
p382
(I2680222
I2682956
tp383
sS'5606778'
p384
(I345146
I348001
tp385
sS'5606779'
p386
(I348006
I350559
tp387
sS'9073531'
p388
(I2685314
I2687753
tp389
sS'9110566'
p390
(I1948416
I1951153
tp391
sS'7030881'
p392
(I355312
I358509
tp393
sS'6648983'
p394
(I361072
I364199
tp395
sS'6648980'
p396
(I364204
I366275
tp397
sS'9033896'
p398
(I2159486
I2161716
tp399
sS'9033895'
p400
(I2164831
I2167175
tp401
sS'5813337'
p402
(I371602
I374155
tp403
sS'7006766'
p404
(I2205031
I2207470
tp405
sS'7940186'
p406
(I376491
I379780
tp407
sS'7940184'
p408
(I379785
I382681
tp409
sS'7131670'
p410
(I382686
I385629
tp411
sS'9062744'
p412
(I385634
I388279
tp413
sS'7940180'
p414
(I388284
I392007
tp415
sS'7940181'
p416
(I392012
I395117
tp417
sS'6046585'
p418
(I395122
I397856
tp419
sS'6439791'
p420
(I400695
I404308
tp421
sS'9026733'
p422
(I2365588
I2368027
tp423
sS'7296112'
p424
(I2390635
I2393280
tp425
sS'9026735'
p426
(I2381997
I2384480
tp427
sS'7580186'
p428
(I404313
I407462
tp429
sS'6991093'
p430
(I407467
I410090
tp431
sS'5424385'
p432
(I410095
I412763
tp433
sS'5737820'
p434
(I412768
I414839
tp435
sS'7250319'
p436
(I417079
I419562
tp437
sS'6844598'
p438
(I419567
I421521
tp439
sS'9129347'
p440
(I421526
I423505
tp441
sS'6844596'
p442
(I423510
I426799
tp443
sS'7250312'
p444
(I426804
I430185
tp445
sS'7250311'
p446
(I430190
I434005
tp447
sS'9129340'
p448
(I2545868
I2548418
tp449
sS'6497759'
p450
(I436153
I438798
tp451
sS'9004023'
p452
(I1267260
I1269214
tp453
sS'6719406'
p454
(I456348
I458971
tp455
sS'9020823'
p456
(I2669624
I2672038
tp457
sS'9004029'
p458
(I1443171
I1444871
tp459
sS'7123482'
p460
(I441203
I443944
tp461
sS'7958452'
p462
(I2514327
I2517660
tp463
sS'9012488'
p464
(I2682961
I2685309
tp465
sS'9116942'
p466
(I446000
I448116
tp467
sS'6039960'
p468
(I448121
I451248
tp469
sS'9080819'
p470
(I1951158
I1953895
tp471
sS'5244678'
p472
(I1927284
I1930021
tp473
sS'6598688'
p474
(I451253
I453810
tp475
sS'6598687'
p476
(I453815
I456343
tp477
sS'9080814'
p478
(I2436697
I2438813
tp479
sS'6401451'
p480
(I2537961
I2540952
tp481
sS'5757320'
p482
(I1236959
I1239490
tp483
sS'7572979'
p484
(I458976
I462265
tp485
sS'5732863'
p486
(I2551581
I2554296
tp487
sS'6815090'
p488
(I462270
I464912
tp489
sS'7572977'
p490
(I464917
I467264
tp491
sS'6642584'
p492
(I467269
I469616
tp493
sS'6642585'
p494
(I469621
I471902
tp495
sS'7934675'
p496
(I471907
I474435
tp497
sS'6401450'
p498
(I2540957
I2543003
tp499
sS'7514290'
p500
(I477852
I481141
tp501
sS'7514295'
p502
(I481146
I484134
tp503
sS'9027514'
p504
(I1122323
I1124785
tp505
sS'7934673'
p506
(I484139
I487406
tp507
sS'5175669'
p508
(I487411
I490446
tp509
sS'5477838'
p510
(I490451
I493508
tp511
sS'7784175'
p512
(I493513
I496342
tp513
sS'7784174'
p514
(I496347
I499449
tp515
sS'7784177'
p516
(I499454
I502740
tp517
sS'7784171'
p518
(I502745
I505670
tp519
sS'7784170'
p520
(I505675
I507930
tp521
sS'7784172'
p522
(I507935
I511018
tp523
sS'7784178'
p524
(I511023
I513345
tp525
sS'9149286'
p526
(I518165
I520189
tp527
sS'9007252'
p528
(I605227
I608262
tp529
sS'6954169'
p530
(I522841
I526266
tp531
sS'9033297'
p532
(I1373713
I1375943
tp533
sS'7394493'
p534
(I529105
I532534
tp535
sS'9027061'
p536
(I532539
I535780
tp537
sS'9027060'
p538
(I535785
I537970
tp539
sS'9065097'
p540
(I2563503
I2566424
tp541
sS'5428923'
p542
(I542702
I544748
tp543
sS'5428922'
p544
(I544753
I547420
tp545
sS'7958116'
p546
(I79089
I81068
tp547
sS'5210229'
p548
(I547425
I550644
tp549
sS'9078065'
p550
(I2642986
I2645149
tp551
sS'5210225'
p552
(I552976
I555945
tp553
sS'5210224'
p554
(I555950
I558919
tp555
sS'5210227'
p556
(I558924
I561683
tp557
sS'5210226'
p558
(I561688
I564907
tp559
sS'5210221'
p560
(I564912
I567466
tp561
sS'5210223'
p562
(I567471
I570025
tp563
sS'7659537'
p564
(I570030
I571966
tp565
sS'6650115'
p566
(I571971
I575260
tp567
sS'6650116'
p568
(I575265
I577818
tp569
sS'6650117'
p570
(I577823
I580836
tp571
sS'5362700'
p572
(I580841
I583236
tp573
sS'5362701'
p574
(I583241
I585404
tp575
sS'7501590'
p576
(I585409
I587848
tp577
sS'6650113'
p578
(I587853
I590473
tp579
sS'5174871'
p580
(I2458542
I2460315
tp581
sS'5919808'
p582
(I2420476
I2422823
tp583
sS'7250318'
p584
(I2486889
I2489693
tp585
sS'9158237'
p586
(I1833449
I1836253
tp587
sS'9158231'
p588
(I2058700
I2061437
tp589
sS'5720989'
p590
(I2617734
I2620493
tp591
sS'7102894'
p592
(I595779
I598998
tp593
sS'5615734'
p594
(I599003
I602134
tp595
sS'5615735'
p596
(I602139
I605222
tp597
sS'9154855'
p598
(I1693398
I1696706
tp599
sS'9154854'
p600
(I1729371
I1732153
tp601
sS'5615732'
p602
(I608267
I610798
tp603
sS'9155589'
p604
(I610803
I614412
tp605
sS'9155586'
p606
(I614417
I616831
tp607
sS'9155584'
p608
(I616836
I619732
tp609
sS'9155585'
p610
(I619737
I621669
tp611
sS'9155582'
p612
(I621674
I624202
tp613
sS'9155583'
p614
(I624207
I626966
tp615
sS'9155581'
p616
(I626971
I629683
tp617
sS'6753518'
p618
(I2526672
I2530145
tp619
sS'6112946'
p620
(I629688
I632127
tp621
sS'6955155'
p622
(I2476174
I2478429
tp623
sS'7452405'
p624
(I632132
I635079
tp625
sS'7452404'
p626
(I635084
I637733
tp627
sS'5723557'
p628
(I637738
I640177
tp629
sS'7452409'
p630
(I640182
I643287
tp631
sS'6112948'
p632
(I643292
I645937
tp633
sS'5412031'
p634
(I2293775
I2296233
tp635
sS'7976631'
p636
(I645942
I649692
tp637
sS'7976633'
p638
(I649697
I653306
tp639
sS'5132340'
p640
(I653311
I655957
tp641
sS'6587613'
p642
(I1732158
I1735307
tp643
sS'9146030'
p644
(I2483481
I2486884
tp645
sS'7119946'
p646
(I655962
I658791
tp647
sS'5132344'
p648
(I658796
I660683
tp649
sS'7976639'
p650
(I660688
I663241
tp651
sS'5132349'
p652
(I663246
I665594
tp653
sS'5334123'
p654
(I114513
I116584
tp655
sS'6164058'
p656
(I670782
I674141
tp657
sS'6144169'
p658
(I674146
I676788
tp659
sS'7963467'
p660
(I397861
I400690
tp661
sS'6212509'
p662
(I680017
I682662
tp663
sS'6212508'
p664
(I682667
I684646
tp665
sS'6144166'
p666
(I684651
I686814
tp667
sS'7568416'
p668
(I686819
I689166
tp669
sS'6738750'
p670
(I2628334
I2631163
tp671
sS'6692146'
p672
(I1220003
I1222464
tp673
sS'9146038'
p674
(I2492120
I2495085
tp675
sS'6444165'
p676
(I1974585
I1977208
tp677
sS'6904884'
p678
(I692395
I695522
tp679
sS'6904885'
p680
(I695527
I698908
tp681
sS'7843588'
p682
(I698913
I701926
tp683
sS'5769748'
p684
(I701931
I704874
tp685
sS'5233271'
p686
(I704879
I709132
tp687
sS'7815677'
p688
(I709137
I712610
tp689
sS'7843587'
p690
(I712615
I715169
tp691
sS'7843581'
p692
(I715174
I717797
tp693
sS'7843582'
p694
(I717802
I721481
tp695
sS'5377481'
p696
(I721486
I723579
tp697
sS'9008458'
p698
(I723584
I726623
tp699
sS'5964614'
p700
(I726628
I728788
tp701
sS'7692024'
p702
(I728793
I731048
tp703
sS'7845547'
p704
(I42125
I45760
tp705
sS'5377487'
p706
(I731053
I733489
tp707
sS'5377486'
p708
(I733494
I735448
tp709
sS'5748717'
p710
(I735453
I737981
tp711
sS'5714627'
p712
(I737986
I740263
tp713
sS'9008453'
p714
(I740268
I743006
tp715
sS'9008455'
p716
(I743011
I744895
tp717
sS'6416115'
p718
(I129451
I132188
tp719
sS'6249789'
p720
(I747344
I750541
tp721
sS'9008456'
p722
(I750546
I752636
tp723
sS'6574809'
p724
(I752641
I754595
tp725
sS'7361773'
p726
(I754600
I757131
tp727
sS'6209379'
p728
(I757136
I760517
tp729
sS'7361776'
p730
(I760522
I763627
tp731
sS'6402626'
p732
(I763632
I767061
tp733
sS'6402625'
p734
(I767066
I769597
tp735
sS'6574801'
p736
(I769602
I771975
tp737
sS'6402628'
p738
(I771980
I774419
tp739
sS'5396751'
p740
(I774424
I777253
tp741
sS'6290615'
p742
(I264829
I266900
tp743
sS'5396753'
p744
(I777258
I780293
tp745
sS'9049360'
p746
(I332041
I334271
tp747
sS'9049363'
p748
(I350564
I352635
tp749
sS'7785109'
p750
(I2473248
I2476169
tp751
sS'9049366'
p752
(I369044
I371597
tp753
sS'9146134'
p754
(I2137023
I2140106
tp755
sS'5879263'
p756
(I787256
I790497
tp757
sS'9142720'
p758
(I414844
I417074
tp759
sS'5341519'
p760
(I790502
I793839
tp761
sS'5341514'
p762
(I793844
I796971
tp763
sS'5341515'
p764
(I796976
I800103
tp765
sS'5341510'
p766
(I800108
I803625
tp767
sS'5719593'
p768
(I803630
I805815
tp769
sS'5146521'
p770
(I805820
I808833
tp771
sS'5146523'
p772
(I808838
I811851
tp773
sS'5160534'
p774
(I515724
I518160
tp775
sS'5212481'
p776
(I884773
I886933
tp777
sS'5734950'
p778
(I816469
I818632
tp779
sS'9014418'
p780
(I818637
I821282
tp781
sS'9014419'
p782
(I821287
I823844
tp783
sS'7206848'
p784
(I823849
I826174
tp785
sS'9014415'
p786
(I826179
I828501
tp787
sS'6459502'
p788
(I828506
I831909
tp789
sS'9014411'
p790
(I831914
I834445
tp791
sS'7141301'
p792
(I834450
I837165
tp793
sS'9014413'
p794
(I837170
I839584
tp795
sS'5771903'
p796
(I839589
I843817
tp797
sS'5854562'
p798
(I665599
I668425
tp799
sS'9066580'
p800
(I843822
I846144
tp801
sS'5771905'
p802
(I846149
I848886
tp803
sS'6968477'
p804
(I848891
I851834
tp805
sS'9066588'
p806
(I851839
I854069
tp807
sS'6968472'
p808
(I856242
I858590
tp809
sS'5675268'
p810
(I858595
I861542
tp811
sS'9115287'
p812
(I863874
I866129
tp813
sS'5212488'
p814
(I866134
I868294
tp815
sS'9115281'
p816
(I868299
I871128
tp817
sS'9115280'
p818
(I871133
I873686
tp819
sS'7667656'
p820
(I873691
I876498
tp821
sS'7667657'
p822
(I876503
I879836
tp823
sS'5675260'
p824
(I879841
I882026
tp825
sS'5212482'
p826
(I882031
I884768
tp827
sS'7049386'
p828
(I813609
I816464
tp829
sS'5212480'
p830
(I886938
I889881
tp831
sS'9115289'
p832
(I889886
I892804
tp833
sS'7511528'
p834
(I892809
I895248
tp835
sS'5939864'
p836
(I895253
I897851
tp837
sS'5422503'
p838
(I861547
I863869
tp839
sS'9099051'
p840
(I897856
I900295
tp841
sS'6141441'
p842
(I900300
I903218
tp843
sS'9099056'
p844
(I903223
I905386
tp845
sS'5172943'
p846
(I905391
I907739
tp847
sS'7933372'
p848
(I907744
I910091
tp849
sS'9099059'
p850
(I910096
I912326
tp851
sS'6141449'
p852
(I912331
I915458
tp853
sS'7817315'
p854
(I981019
I983458
tp855
sS'7279848'
p856
(I915463
I918245
tp857
sS'7957876'
p858
(I918250
I920527
tp859
sS'7957877'
p860
(I920532
I923913
tp861
sS'7957874'
p862
(I923918
I926262
tp863
sS'7957875'
p864
(I926267
I928522
tp865
sS'7973941'
p866
(I928527
I931356
tp867
sS'7957871'
p868
(I931361
I934650
tp869
sS'7947050'
p870
(I1049697
I1052044
tp871
sS'6066060'
p872
(I1707448
I1709678
tp873
sS'7973949'
p874
(I934655
I937506
tp875
sS'7957878'
p876
(I937511
I939766
tp877
sS'7947056'
p878
(I1089640
I1092749
tp879
sS'9116035'
p880
(I2650337
I2652868
tp881
sS'7941445'
p882
(I939771
I943152
tp883
sS'5846994'
p884
(I943157
I946078
tp885
sS'7941441'
p886
(I946083
I948176
tp887
sS'5846990'
p888
(I948181
I950734
tp889
sS'5556989'
p890
(I1196222
I1198569
tp891
sS'7884102'
p892
(I950739
I953384
tp893
sS'7941449'
p894
(I953389
I957480
tp895
sS'5846998'
p896
(I957485
I959832
tp897
sS'5635081'
p898
(I959837
I962688
tp899
sS'7017374'
p900
(I962693
I965177
tp901
sS'5635083'
p902
(I965182
I967345
tp903
sS'7017373'
p904
(I967350
I970087
tp905
sS'5635086'
p906
(I970092
I972947
tp907
sS'9082351'
p908
(I2222704
I2225280
tp909
sS'5479392'
p910
(I972952
I975940
tp911
sS'5479390'
p912
(I975945
I978197
tp913
sS'7017378'
p914
(I978202
I981014
tp915
sS'9149288'
p916
(I520194
I522836
tp917
sS'6950197'
p918
(I1352014
I1354083
tp919
sS'6316754'
p920
(I986227
I989240
tp921
sS'6135436'
p922
(I989245
I992188
tp923
sS'6135435'
p924
(I992193
I995504
tp925
sS'6135434'
p926
(I995509
I997787
tp927
sS'5217505'
p928
(I997792
I1000415
tp929
sS'6755519'
p930
(I854074
I856237
tp931
sS'7981972'
p932
(I438803
I441198
tp933
sS'7981973'
p934
(I1283435
I1285691
tp935
sS'5217501'
p936
(I1002173
I1005580
tp937
sS'5217500'
p938
(I1005585
I1008992
tp939
sS'9023554'
p940
(I2050613
I2052935
tp941
sS'6134261'
p942
(I1447828
I1450175
tp943
sS'7978052'
p944
(I1456266
I1459485
tp945
sS'6134263'
p946
(I1466380
I1468955
tp947
sS'6134262'
p948
(I1474878
I1477339
tp949
sS'6911556'
p950
(I1485133
I1486881
tp951
sS'5729125'
p952
(I1518088
I1520159
tp953
sS'6839486'
p954
(I2543008
I2545863
tp955
sS'7255416'
p956
(I1012196
I1014860
tp957
sS'7255412'
p958
(I1014865
I1017028
tp959
sS'7255411'
p960
(I1017033
I1019380
tp961
sS'7818757'
p962
(I1019385
I1022284
tp963
sS'5484910'
p964
(I1025859
I1028574
tp965
sS'5484911'
p966
(I1028579
I1031019
tp967
sS'5484912'
p968
(I1031024
I1033165
tp969
sS'7450068'
p970
(I1033170
I1035631
tp971
sS'7677031'
p972
(I1698946
I1702143
tp973
sS'9146037'
p974
(I2470531
I2473243
tp975
sS'4010684'
p976
(I1038448
I1039920
tp977
sS'4010685'
p978
(I1039925
I1041489
tp979
sS'5428119'
p980
(I1041494
I1043930
tp981
sS'5630106'
p982
(I1043935
I1046674
tp983
sS'5630102'
p984
(I1046679
I1049692
tp985
sS'5307401'
p986
(I1861065
I1863942
tp987
sS'7816048'
p988
(I1892563
I1895297
tp989
sS'9017335'
p990
(I1052049
I1053867
tp991
sS'7513386'
p992
(I1053872
I1055554
tp993
sS'9017330'
p994
(I1055559
I1058020
tp995
sS'9017331'
p996
(I1058025
I1061038
tp997
sS'7334354'
p998
(I1061043
I1063828
tp999
sS'5732869'
p1000
(I2548423
I2551576
tp1001
sS'7645329'
p1002
(I1063833
I1067394
tp1003
sS'7513389'
p1004
(I1067399
I1069838
tp1005
sS'6429020'
p1006
(I1648670
I1651249
tp1007
sS'7144228'
p1008
(I1069843
I1072672
tp1009
sS'6119804'
p1010
(I1072677
I1074653
tp1011
sS'7101900'
p1012
(I1074658
I1078040
tp1013
sS'6175000'
p1014
(I1078045
I1080300
tp1015
sS'9105607'
p1016
(I2052940
I2055677
tp1017
sS'9109833'
p1018
(I358514
I361067
tp1019
sS'7616844'
p1020
(I1082657
I1085692
tp1021
sS'5344077'
p1022
(I1085697
I1087559
tp1023
sS'5344074'
p1024
(I1087564
I1089635
tp1025
sS'5344071'
p1026
(I1097569
I1099456
tp1027
sS'7026237'
p1028
(I1099461
I1102471
tp1029
sS'9034967'
p1030
(I20277
I23014
tp1031
sS'5263746'
p1032
(I1104736
I1107013
tp1033
sS'6299396'
p1034
(I2175080
I2177310
tp1035
sS'7965587'
p1036
(I2177315
I2179614
tp1037
sS'7965586'
p1038
(I2182545
I2184823
tp1039
sS'5263742'
p1040
(I1112296
I1114548
tp1041
sS'7965584'
p1042
(I2196944
I2199564
tp1043
sS'9007742'
p1044
(I1987792
I1990345
tp1045
sS'5263749'
p1046
(I1117295
I1119966
tp1047
sS'7026238'
p1048
(I1119971
I1122318
tp1049
sS'9135783'
p1050
(I1211548
I1213984
tp1051
sS'9146546'
p1052
(I1127142
I1129372
tp1053
sS'7640663'
p1054
(I1129377
I1131423
tp1055
sS'4015308'
p1056
(I1131428
I1132624
tp1057
sS'7640661'
p1058
(I1132629
I1135458
tp1059
sS'9146542'
p1060
(I1135463
I1138061
tp1061
sS'9146543'
p1062
(I1138066
I1141171
tp1063
sS'7640664'
p1064
(I1141176
I1144373
tp1065
sS'7807592'
p1066
(I1144378
I1147969
tp1067
sS'5995648'
p1068
(I1147974
I1150251
tp1069
sS'9026193'
p1070
(I2410794
I2413208
tp1071
sS'7498524'
p1072
(I1150256
I1153295
tp1073
sS'7215779'
p1074
(I1153300
I1156037
tp1075
sS'6026145'
p1076
(I1156042
I1158985
tp1077
sS'5633664'
p1078
(I1158990
I1161797
tp1079
sS'6026147'
p1080
(I1161802
I1164653
tp1081
sS'5633662'
p1082
(I1164658
I1167487
tp1083
sS'7921722'
p1084
(I1167492
I1170803
tp1085
sS'7995181'
p1086
(I1109094
I1112291
tp1087
sS'5149629'
p1088
(I1170808
I1173177
tp1089
sS'7405551'
p1090
(I1173182
I1176677
tp1091
sS'7921721'
p1092
(I1176682
I1179625
tp1093
sS'7954758'
p1094
(I1179630
I1182069
tp1095
sS'7516601'
p1096
(I1182074
I1184649
tp1097
sS'7954756'
p1098
(I1184654
I1187759
tp1099
sS'7954754'
p1100
(I1187764
I1190777
tp1101
sS'7921720'
p1102
(I1190782
I1193817
tp1103
sS'7405559'
p1104
(I1193822
I1196217
tp1105
sS'7954750'
p1106
(I1198574
I1201425
tp1107
sS'6620392'
p1108
(I1201430
I1203961
tp1109
sS'7650270'
p1110
(I1203966
I1206519
tp1111
sS'7650271'
p1112
(I1206524
I1209239
tp1113
sS'7650273'
p1114
(I1209244
I1211543
tp1115
sS'5427027'
p1116
(I2609327
I2612660
tp1117
sS'5998346'
p1118
(I1213989
I1217278
tp1119
sS'7662971'
p1120
(I2639832
I2642981
tp1121
sS'5537252'
p1122
(I1217283
I1219998
tp1123
sS'5466324'
p1124
(I2448633
I2451208
tp1125
sS'5524554'
p1126
(I1222469
I1224632
tp1127
sS'7676344'
p1128
(I2687758
I2690219
tp1129
sS'6860442'
p1130
(I1227677
I1230528
tp1131
sS'7117901'
p1132
(I1230533
I1233752
tp1133
sS'7417756'
p1134
(I1233757
I1236954
tp1135
sS'7417751'
p1136
(I1239495
I1241956
tp1137
sS'7117909'
p1138
(I1241961
I1244126
tp1139
sS'7695000'
p1140
(I1244131
I1246294
tp1141
sS'6023649'
p1142
(I1246299
I1249356
tp1143
sS'7695002'
p1144
(I1249361
I1252650
tp1145
sS'9026218'
p1146
(I1371133
I1373708
tp1147
sS'7944161'
p1148
(I1255581
I1258502
tp1149
sS'7944162'
p1150
(I1258507
I1261130
tp1151
sS'7695007'
p1152
(I1261135
I1264354
tp1153
sS'5456737'
p1154
(I1264359
I1267255
tp1155
sS'7944168'
p1156
(I1269219
I1272254
tp1157
sS'6247832'
p1158
(I1272259
I1275732
tp1159
sS'5404879'
p1160
(I1756734
I1758897
tp1161
sS'7409651'
p1162
(I2453654
I2456391
tp1163
sS'5404878'
p1164
(I1758902
I1761065
tp1165
sS'9072934'
p1166
(I2061442
I2063786
tp1167
sS'6728818'
p1168
(I1285696
I1288135
tp1169
sS'6784018'
p1170
(I1288140
I1291153
tp1171
sS'5131081'
p1172
(I1291158
I1292950
tp1173
sS'5131080'
p1174
(I1292955
I1294932
tp1175
sS'5532752'
p1176
(I1294937
I1298106
tp1177
sS'7967241'
p1178
(I1768102
I1771045
tp1179
sS'5532755'
p1180
(I1298111
I1300617
tp1181
sS'7118488'
p1182
(I1300622
I1303797
tp1183
sS'7118489'
p1184
(I1303802
I1306539
tp1185
sS'7118486'
p1186
(I1306544
I1309075
tp1187
sS'7410251'
p1188
(I1309080
I1312005
tp1189
sS'5153688'
p1190
(I1312010
I1314265
tp1191
sS'7949022'
p1192
(I1314270
I1316849
tp1193
sS'6976412'
p1194
(I1316854
I1319591
tp1195
sS'7949021'
p1196
(I1319596
I1322400
tp1197
sS'7124448'
p1198
(I1322405
I1325142
tp1199
sS'7124447'
p1200
(I1325147
I1328252
tp1201
sS'6007774'
p1202
(I1328257
I1331362
tp1203
sS'7457301'
p1204
(I1331367
I1334057
tp1205
sS'6215066'
p1206
(I1342428
I1344775
tp1207
sS'5669084'
p1208
(I1334062
I1336317
tp1209
sS'5226548'
p1210
(I1336322
I1338967
tp1211
sS'5669083'
p1212
(I1338972
I1342423
tp1213
sS'6135432'
p1214
(I983463
I986222
tp1215
sS'5226545'
p1216
(I1344780
I1347102
tp1217
sS'5226544'
p1218
(I1347107
I1349660
tp1219
sS'5226546'
p1220
(I1349665
I1352009
tp1221
sS'9050476'
p1222
(I1095404
I1097564
tp1223
sS'7944415'
p1224
(I2577737
I2579415
tp1225
sS'9057612'
p1226
(I1359594
I1362515
tp1227
sS'9057611'
p1228
(I1362520
I1365441
tp1229
sS'7866131'
p1230
(I1365446
I1368113
tp1231
sS'9057615'
p1232
(I1368118
I1371128
tp1233
sS'7944417'
p1234
(I2582850
I2584988
tp1235
sS'7656899'
p1236
(I1375948
I1379304
tp1237
sS'7944410'
p1238
(I2584993
I2587340
tp1239
sS'5182236'
p1240
(I1381084
I1382582
tp1241
sS'7751754'
p1242
(I1382587
I1385324
tp1243
sS'5553566'
p1244
(I1385329
I1387743
tp1245
sS'5553567'
p1246
(I1387748
I1390118
tp1247
sS'5553565'
p1248
(I1390123
I1392607
tp1249
sS'5260464'
p1250
(I1392612
I1394499
tp1251
sS'7156496'
p1252
(I1394504
I1397333
tp1253
sS'9019513'
p1254
(I1661395
I1664611
tp1255
sS'5260463'
p1256
(I1397338
I1400075
tp1257
sS'7270501'
p1258
(I1400080
I1402335
tp1259
sS'7944413'
p1260
(I2589973
I2593192
tp1261
sS'5217507'
p1262
(I1000420
I1002168
tp1263
sS'7936583'
p1264
(I2593197
I2596302
tp1265
sS'5356684'
p1266
(I1405358
I1408121
tp1267
sS'5107098'
p1268
(I1800246
I1802406
tp1269
sS'6552912'
p1270
(I1417316
I1420786
tp1271
sS'5720987'
p1272
(I2598244
I2601051
tp1273
sS'9073729'
p1274
(I1423533
I1425880
tp1275
sS'9073728'
p1276
(I1425885
I1428505
tp1277
sS'7936587'
p1278
(I2601056
I2603768
tp1279
sS'9073727'
p1280
(I1432821
I1435260
tp1281
sS'9073721'
p1282
(I1435265
I1437726
tp1283
sS'9073720'
p1284
(I1437731
I1440836
tp1285
sS'9073723'
p1286
(I1440841
I1443166
tp1287
sS'6636107'
p1288
(I1444876
I1447823
tp1289
sS'6636105'
p1290
(I1450180
I1452251
tp1291
sS'6636103'
p1292
(I1452256
I1454394
tp1293
sS'6636101'
p1294
(I1454399
I1456261
tp1295
sS'7577535'
p1296
(I1810196
I1813393
tp1297
sS'5230736'
p1298
(I203331
I206160
tp1299
sS'5431169'
p1300
(I1468960
I1471649
tp1301
sS'6704561'
p1302
(I1471654
I1474873
tp1303
sS'7850181'
p1304
(I1477344
I1479485
tp1305
sS'7850183'
p1306
(I1479490
I1483169
tp1307
sS'5431161'
p1308
(I1483174
I1485128
tp1309
sS'7205785'
p1310
(I1486886
I1489208
tp1311
sS'5431164'
p1312
(I1489213
I1491582
tp1313
sS'5431167'
p1314
(I1491587
I1493931
tp1315
sS'7114666'
p1316
(I1493936
I1496121
tp1317
sS'7331407'
p1318
(I1496126
I1498771
tp1319
sS'9124790'
p1320
(I1836258
I1839293
tp1321
sS'6777531'
p1322
(I1498776
I1501811
tp1323
sS'7412674'
p1324
(I1501816
I1504645
tp1325
sS'7727322'
p1326
(I1504650
I1508057
tp1327
sS'7412676'
p1328
(I1508062
I1510339
tp1329
sS'5952535'
p1330
(I1510344
I1512805
tp1331
sS'7490182'
p1332
(I1512810
I1515801
tp1333
sS'7114669'
p1334
(I1515806
I1518083
tp1335
sS'5820158'
p1336
(I1520164
I1523611
tp1337
sS'7121198'
p1338
(I1523616
I1526077
tp1339
sS'7696634'
p1340
(I2620498
I2623419
tp1341
sS'5789785'
p1342
(I1529398
I1532062
tp1343
sS'5789784'
p1344
(I1532067
I1534319
tp1345
sS'7121194'
p1346
(I1534324
I1537061
tp1347
sS'6238386'
p1348
(I1537066
I1540377
tp1349
sS'6238383'
p1350
(I1543308
I1546733
tp1351
sS'6238382'
p1352
(I1546738
I1549615
tp1353
sS'7147149'
p1354
(I1549620
I1553001
tp1355
sS'6898780'
p1356
(I1553006
I1555949
tp1357
sS'9043089'
p1358
(I1555954
I1558117
tp1359
sS'5316186'
p1360
(I1558122
I1561475
tp1361
sS'5316181'
p1362
(I1561480
I1563735
tp1363
sS'6390955'
p1364
(I1817827
I1821024
tp1365
sS'7359896'
p1366
(I1567516
I1570253
tp1367
sS'7359897'
p1368
(I1570258
I1572421
tp1369
sS'5917214'
p1370
(I1572426
I1575185
tp1371
sS'5917215'
p1372
(I1575190
I1578409
tp1373
sS'9043081'
p1374
(I1578414
I1580460
tp1375
sS'5917210'
p1376
(I1580465
I1582511
tp1377
sS'9043086'
p1378
(I1582516
I1585253
tp1379
sS'6799985'
p1380
(I2676998
I2680217
tp1381
sS'9043084'
p1382
(I1585258
I1587811
tp1383
sS'9055769'
p1384
(I2318842
I2321947
tp1385
sS'5154334'
p1386
(I1587816
I1590116
tp1387
sS'5154335'
p1388
(I1590121
I1592145
tp1389
sS'5154333'
p1390
(I1592150
I1594660
tp1391
sS'5554640'
p1392
(I1823793
I1825864
tp1393
sS'5154338'
p1394
(I1597131
I1600075
tp1395
sS'7462614'
p1396
(I2633796
I2636787
tp1397
sS'6934605'
p1398
(I1602340
I1605169
tp1399
sS'6091016'
p1400
(I1607409
I1609367
tp1401
sS'5581560'
p1402
(I2229504
I2232425
tp1403
sS'5553422'
p1404
(I138159
I140598
tp1405
sS'5340560'
p1406
(I2427529
I2430815
tp1407
sS'7960885'
p1408
(I177881
I180780
tp1409
sS'6207506'
p1410
(I1612136
I1614759
tp1411
sS'5187349'
p1412
(I1614764
I1617295
tp1413
sS'5187348'
p1414
(I1617300
I1620405
tp1415
sS'5543242'
p1416
(I1620410
I1623900
tp1417
sS'7960883'
p1418
(I247157
I249321
tp1419
sS'7960882'
p1420
(I255182
I258309
tp1421
sS'6228354'
p1422
(I266905
I269712
tp1423
sS'5636744'
p1424
(I1629319
I1631867
tp1425
sS'7960889'
p1426
(I278193
I281574
tp1427
sS'5311202'
p1428
(I1631872
I1635003
tp1429
sS'5187344'
p1430
(I1635008
I1637539
tp1431
sS'7995441'
p1432
(I312725
I314612
tp1433
sS'7000810'
p1434
(I1640124
I1643137
tp1435
sS'7000816'
p1436
(I1643142
I1645717
tp1437
sS'7000815'
p1438
(I1645722
I1648665
tp1439
sS'7265618'
p1440
(I1651254
I1653439
tp1441
sS'7978334'
p1442
(I1653444
I1656847
tp1443
sS'9134896'
p1444
(I2504605
I2507799
tp1445
sS'7961424'
p1446
(I1848533
I1851476
tp1447
sS'5174872'
p1448
(I2456396
I2458537
tp1449
sS'6646560'
p1450
(I443949
I445995
tp1451
sS'9083757'
p1452
(I2187754
I2190675
tp1453
sS'7711158'
p1454
(I1656852
I1658739
tp1455
sS'6683371'
p1456
(I2184828
I2187749
tp1457
sS'7801560'
p1458
(I474440
I477847
tp1459
sS'9116037'
p1460
(I2645154
I2647384
tp1461
sS'9048285'
p1462
(I513350
I515719
tp1463
sS'9048287'
p1464
(I526271
I529100
tp1465
sS'9048288'
p1466
(I537975
I540345
tp1467
sS'7801569'
p1468
(I540350
I542697
tp1469
sS'5489455'
p1470
(I744900
I747339
tp1471
sS'9081958'
p1472
(I1737848
I1739710
tp1473
sS'5489453'
p1474
(I811856
I813604
tp1475
sS'5650415'
p1476
(I590478
I593216
tp1477
sS'5865837'
p1478
(I1664616
I1667467
tp1479
sS'5865835'
p1480
(I1667472
I1670691
tp1481
sS'5865838'
p1482
(I1670696
I1673617
tp1483
sS'6995957'
p1484
(I1673622
I1676061
tp1485
sS'6374367'
p1486
(I1676066
I1678895
tp1487
sS'6374364'
p1488
(I1678900
I1681453
tp1489
sS'9093853'
p1490
(I782672
I784718
tp1491
sS'5323501'
p1492
(I1681458
I1685045
tp1493
sS'5787960'
p1494
(I1685050
I1687581
tp1495
sS'5323503'
p1496
(I1687586
I1689775
tp1497
sS'5950591'
p1498
(I1689780
I1693393
tp1499
sS'5787969'
p1500
(I1696711
I1698941
tp1501
sS'5950598'
p1502
(I1702148
I1704517
tp1503
sS'5950599'
p1504
(I1704522
I1707443
tp1505
sS'6453920'
p1506
(I1742021
I1744368
tp1507
sS'5131713'
p1508
(I2657828
I2660587
tp1509
sS'6816656'
p1510
(I1709683
I1712814
tp1511
sS'7123132'
p1512
(I1712819
I1715192
tp1513
sS'6816653'
p1514
(I1715197
I1718306
tp1515
sS'7123139'
p1516
(I1718311
I1721048
tp1517
sS'7278168'
p1518
(I1721053
I1723974
tp1519
sS'7943823'
p1520
(I2307299
I2310242
tp1521
sS'6816659'
p1522
(I1723979
I1726602
tp1523
sS'9076602'
p1524
(I1726607
I1729366
tp1525
sS'6432355'
p1526
(I2660592
I2663995
tp1527
sS'9116039'
p1528
(I2664000
I2666277
tp1529
sS'7996016'
p1530
(I1735312
I1737843
tp1531
sS'9077635'
p1532
(I1092754
I1095399
tp1533
sS'9077634'
p1534
(I1107018
I1109089
tp1535
sS'7996012'
p1536
(I1739715
I1742016
tp1537
sS'7012526'
p1538
(I1124790
I1127137
tp1539
sS'7996010'
p1540
(I1744373
I1746834
tp1541
sS'5938227'
p1542
(I1746839
I1748885
tp1543
sS'5404875'
p1544
(I1748890
I1751237
tp1545
sS'5125564'
p1546
(I1751242
I1752945
tp1547
sS'5125563'
p1548
(I1752950
I1754653
tp1549
sS'5404872'
p1550
(I1754658
I1756729
tp1551
sS'9076586'
p1552
(I1224637
I1227672
tp1553
sS'7409040'
p1554
(I1252655
I1255576
tp1555
sS'9076583'
p1556
(I1275737
I1277945
tp1557
sS'5737652'
p1558
(I1277950
I1280713
tp1559
sS'9076581'
p1560
(I1280718
I1283430
tp1561
sS'7967242'
p1562
(I1761070
I1763417
tp1563
sS'5193909'
p1564
(I1763422
I1765836
tp1565
sS'5482572'
p1566
(I1765841
I1768097
tp1567
sS'5760059'
p1568
(I1413702
I1417311
tp1569
sS'7646361'
p1570
(I258314
I261809
tp1571
sS'7967247'
p1572
(I1773608
I1776897
tp1573
sS'9082136'
p1574
(I6633
I9300
tp1575
sS'5482579'
p1576
(I1779461
I1781691
tp1577
sS'7967248'
p1578
(I1781696
I1783951
tp1579
sS'7967249'
p1580
(I1783956
I1787473
tp1581
sS'5193905'
p1582
(I1787478
I1790491
tp1583
sS'9059861'
p1584
(I1790496
I1792659
tp1585
sS'7436343'
p1586
(I1792664
I1795309
tp1587
sS'9049825'
p1588
(I1795314
I1797201
tp1589
sS'7436344'
p1590
(I1797206
I1800241
tp1591
sS'7964613'
p1592
(I1408126
I1410771
tp1593
sS'7577530'
p1594
(I1802411
I1805630
tp1595
sS'7577533'
p1596
(I1805635
I1807817
tp1597
sS'5549827'
p1598
(I2402380
I2404819
tp1599
sS'5713902'
p1600
(I1463542
I1466375
tp1601
sS'5107091'
p1602
(I1813398
I1815863
tp1603
sS'7322834'
p1604
(I2672043
I2674390
tp1605
sS'5554649'
p1606
(I1815868
I1817822
tp1607
sS'5231455'
p1608
(I1563740
I1567511
tp1609
sS'5554642'
p1610
(I1821029
I1823788
tp1611
sS'5348067'
p1612
(I1594665
I1597126
tp1613
sS'5554641'
p1614
(I1825869
I1828350
tp1615
sS'5554646'
p1616
(I1828355
I1830978
tp1617
sS'5554644'
p1618
(I1830983
I1833444
tp1619
sS'6217320'
p1620
(I1839298
I1842587
tp1621
sS'5248608'
p1622
(I1845426
I1848528
tp1623
sS'7996905'
p1624
(I2574995
I2577732
tp1625
sS'6586261'
p1626
(I1851481
I1853968
tp1627
sS'6586265'
p1628
(I1853973
I1857560
tp1629
sS'7802389'
p1630
(I1857565
I1861060
tp1631
sS'6041701'
p1632
(I1863947
I1866202
tp1633
sS'7696636'
p1634
(I2615407
I2617729
tp1635
sS'7802380'
p1636
(I1866207
I1868760
tp1637
sS'9145827'
p1638
(I1902955
I1905990
tp1639
sS'7970445'
p1640
(I1868765
I1872076
tp1641
sS'7962221'
p1642
(I1872081
I1874980
tp1643
sS'5889805'
p1644
(I1874985
I1877630
tp1645
sS'6049133'
p1646
(I1877635
I1880280
tp1647
sS'5825005'
p1648
(I1880285
I1883504
tp1649
sS'5701088'
p1650
(I1883509
I1886062
tp1651
sS'5825000'
p1652
(I1886067
I1889308
tp1653
sS'5701086'
p1654
(I1889313
I1892558
tp1655
sS'9026965'
p1656
(I2033043
I2035574
tp1657
sS'5701083'
p1658
(I1895302
I1897763
tp1659
sS'9031573'
p1660
(I1897768
I1899931
tp1661
sS'6443622'
p1662
(I1899936
I1902950
tp1663
sS'6443624'
p1664
(I1905995
I1909008
tp1665
sS'9031574'
p1666
(I1912627
I1914698
tp1667
sS'9031575'
p1668
(I1914703
I1917440
tp1669
sS'6578930'
p1670
(I1917445
I1920896
tp1671
sS'6578933'
p1672
(I1920901
I1923822
tp1673
sS'6578932'
p1674
(I1923827
I1927279
tp1675
sS'7724393'
p1676
(I2170566
I2173002
tp1677
sS'7967246'
p1678
(I1771050
I1773603
tp1679
sS'6211644'
p1680
(I2179619
I2182540
tp1681
sS'7785407'
p1682
(I2193628
I2196939
tp1683
sS'6380256'
p1684
(I1930026
I1933245
tp1685
sS'7179652'
p1686
(I1933250
I1936171
tp1687
sS'7179657'
p1688
(I1938712
I1940850
tp1689
sS'7785409'
p1690
(I2290069
I2293770
tp1691
sS'5582601'
p1692
(I1940855
I1942993
tp1693
sS'5219501'
p1694
(I2310247
I2313352
tp1695
sS'6900394'
p1696
(I1459490
I1463537
tp1697
sS'5582608'
p1698
(I1944982
I1948411
tp1699
sS'7976022'
p1700
(I1035636
I1038443
tp1701
sS'7960987'
p1702
(I1909013
I1912622
tp1703
sS'7960980'
p1704
(I1942998
I1944977
tp1705
sS'5116097'
p1706
(I784723
I787251
tp1707
sS'5466320'
p1708
(I2434462
I2436692
tp1709
sS'7158924'
p1710
(I2443653
I2446000
tp1711
sS'7972549'
p1712
(I1953900
I1956108
tp1713
sS'7972548'
p1714
(I1956113
I1958872
tp1715
sS'7972547'
p1716
(I1958877
I1962442
tp1717
sS'7972544'
p1718
(I1962447
I1965184
tp1719
sS'7972543'
p1720
(I1965189
I1968592
tp1721
sS'7102707'
p1722
(I1968597
I1971356
tp1723
sS'7102704'
p1724
(I1971361
I1974580
tp1725
sS'6144168'
p1726
(I676793
I680012
tp1727
sS'5417032'
p1728
(I1977213
I1979950
tp1729
sS'5326065'
p1730
(I1979955
I1983108
tp1731
sS'7322838'
p1732
(I2666282
I2669619
tp1733
sS'9007740'
p1734
(I1983113
I1985552
tp1735
sS'9007741'
p1736
(I1985557
I1987787
tp1737
sS'7967244'
p1738
(I1776902
I1779456
tp1739
sS'9007743'
p1740
(I1990350
I1993271
tp1741
sS'5145701'
p1742
(I1993276
I1995506
tp1743
sS'9124791'
p1744
(I1807822
I1810191
tp1745
sS'5145703'
p1746
(I1997654
I2000550
tp1747
sS'5145702'
p1748
(I2000555
I2003451
tp1749
sS'5282529'
p1750
(I1936176
I1938707
tp1751
sS'9136595'
p1752
(I2523977
I2526667
tp1753
sS'6813770'
p1754
(I2006566
I2009487
tp1755
sS'6038917'
p1756
(I2009492
I2011769
tp1757
sS'9034438'
p1758
(I2011774
I2014213
tp1759
sS'9034439'
p1760
(I2014218
I2016540
tp1761
sS'9068047'
p1762
(I2016545
I2019282
tp1763
sS'9068040'
p1764
(I2019287
I2022300
tp1765
sS'7524057'
p1766
(I2022305
I2024535
tp1767
sS'5754938'
p1768
(I2024540
I2027601
tp1769
sS'7886009'
p1770
(I2027606
I2030343
tp1771
sS'7993537'
p1772
(I2030348
I2033038
tp1773
sS'7993535'
p1774
(I2035579
I2037375
tp1775
sS'5754935'
p1776
(I2037380
I2040004
tp1777
sS'7169727'
p1778
(I2040009
I2043114
tp1779
sS'7993532'
p1780
(I2043119
I2045488
tp1781
sS'7993531'
p1782
(I2045493
I2047656
tp1783
sS'7169724'
p1784
(I2047661
I2050608
tp1785
sS'9110495'
p1786
(I550649
I552971
tp1787
sS'7646889'
p1788
(I2055682
I2058695
tp1789
sS'5943426'
p1790
(I1080305
I1082652
tp1791
sS'7646883'
p1792
(I2063791
I2066297
tp1793
sS'7932741'
p1794
(I2066302
I2069448
tp1795
sS'7932743'
p1796
(I2069453
I2072558
tp1797
sS'7932742'
p1798
(I2072563
I2076084
tp1799
sS'7932745'
p1800
(I2076089
I2078852
tp1801
sS'6952466'
p1802
(I2078857
I2081870
tp1803
sS'6952465'
p1804
(I2081875
I2084428
tp1805
sS'7932748'
p1806
(I2084433
I2087652
tp1807
sS'5711610'
p1808
(I2087657
I2091358
tp1809
sS'6724185'
p1810
(I689171
I692390
tp1811
sS'9047649'
p1812
(I2091363
I2094306
tp1813
sS'9036701'
p1814
(I2096086
I2098728
tp1815
sS'9047647'
p1816
(I2098733
I2100801
tp1817
sS'9047646'
p1818
(I2100806
I2103175
tp1819
sS'9047641'
p1820
(I2103180
I2106193
tp1821
sS'9047640'
p1822
(I2106198
I2108843
tp1823
sS'9047643'
p1824
(I2108848
I2110824
tp1825
sS'9047642'
p1826
(I2110829
I2113842
tp1827
sS'7000022'
p1828
(I2113847
I2116514
tp1829
sS'7761806'
p1830
(I2116519
I2118867
tp1831
sS'7849232'
p1832
(I2118872
I2121492
tp1833
sS'7054288'
p1834
(I2121497
I2123774
tp1835
sS'7849234'
p1836
(I2123779
I2125847
tp1837
sS'7761809'
p1838
(I2125852
I2129001
tp1839
sS'5377319'
p1840
(I2129006
I2131651
tp1841
sS'9075326'
p1842
(I2131656
I2134577
tp1843
sS'9075325'
p1844
(I2134582
I2137018
tp1845
sS'7575393'
p1846
(I2140111
I2143584
tp1847
sS'9155873'
p1848
(I2143589
I2146095
tp1849
sS'6001901'
p1850
(I2146100
I2148859
tp1851
sS'6001900'
p1852
(I2148864
I2152153
tp1853
sS'5732864'
p1854
(I2554301
I2556280
tp1855
sS'5377312'
p1856
(I2152158
I2154457
tp1857
sS'5377315'
p1858
(I2154462
I2156923
tp1859
sS'9075329'
p1860
(I2156928
I2159481
tp1861
sS'9079778'
p1862
(I1605174
I1607404
tp1863
sS'5263745'
p1864
(I1102476
I1104731
tp1865
sS'5346076'
p1866
(I2173007
I2175075
tp1867
sS'9133437'
p1868
(I593221
I595774
tp1869
sS'5547689'
p1870
(I2190680
I2193623
tp1871
sS'7965583'
p1872
(I2161721
I2164826
tp1873
sS'6211984'
p1874
(I2199569
I2202766
tp1875
sS'6211986'
p1876
(I2202771
I2205026
tp1877
sS'5623431'
p1878
(I2207475
I2209981
tp1879
sS'5623436'
p1880
(I2209986
I2212422
tp1881
sS'5623437'
p1882
(I2212427
I2214980
tp1883
sS'9025193'
p1884
(I2214985
I2217675
tp1885
sS'7965582'
p1886
(I2167180
I2170561
tp1887
sS'7737159'
p1888
(I2217680
I2220325
tp1889
sS'6146055'
p1890
(I2220330
I2222699
tp1891
sS'9062743'
p1892
(I2225285
I2227448
tp1893
sS'6115714'
p1894
(I2227453
I2229499
tp1895
sS'9025824'
p1896
(I36685
I39492
tp1897
sS'7988540'
p1898
(I2232430
I2235605
tp1899
sS'7988546'
p1900
(I2235610
I2238439
tp1901
sS'7988547'
p1902
(I2238444
I2241457
tp1903
sS'7988544'
p1904
(I2241462
I2244589
tp1905
sS'5581566'
p1906
(I2244594
I2247445
tp1907
sS'6469567'
p1908
(I2247450
I2250349
tp1909
sS'6469564'
p1910
(I2250354
I2252701
tp1911
sS'6094927'
p1912
(I2252706
I2255741
tp1913
sS'6094925'
p1914
(I2255746
I2258579
tp1915
sS'5839157'
p1916
(I2258584
I2261413
tp1917
sS'7705436'
p1918
(I2261418
I2264365
tp1919
sS'5262018'
p1920
(I2094311
I2096081
tp1921
sS'7459688'
p1922
(I2264370
I2267225
tp1923
sS'7977066'
p1924
(I2267230
I2269971
tp1925
sS'7977064'
p1926
(I2269976
I2273243
tp1927
sS'7977063'
p1928
(I2273248
I2276011
tp1929
sS'7977061'
p1930
(I2276016
I2279143
tp1931
sS'6299138'
p1932
(I2279148
I2281815
tp1933
sS'5106560'
p1934
(I2003456
I2006561
tp1935
sS'7629294'
p1936
(I2281820
I2284605
tp1937
sS'6957175'
p1938
(I2284610
I2287046
tp1939
sS'7214755'
p1940
(I261814
I264824
tp1941
sS'9049527'
p1942
(I2451213
I2453649
tp1943
sS'6391491'
p1944
(I2296238
I2298770
tp1945
sS'7187430'
p1946
(I2298775
I2301122
tp1947
sS'6391494'
p1948
(I2301127
I2303794
tp1949
sS'5716133'
p1950
(I2303799
I2307294
tp1951
sS'5330690'
p1952
(I2313357
I2315612
tp1953
sS'6992220'
p1954
(I2315617
I2318837
tp1955
sS'5330696'
p1956
(I2321952
I2324505
tp1957
sS'5139376'
p1958
(I2324510
I2326997
tp1959
sS'5139373'
p1960
(I2327002
I2329191
tp1961
sS'5139370'
p1962
(I2329196
I2331293
tp1963
sS'6509311'
p1964
(I2331298
I2333943
tp1965
sS'6509310'
p1966
(I2333948
I2337513
tp1967
sS'6538859'
p1968
(I1842592
I1845421
tp1969
sS'5658720'
p1970
(I2337518
I2339427
tp1971
sS'5658721'
p1972
(I2339432
I2343295
tp1973
sS'5658722'
p1974
(I2343300
I2346063
tp1975
sS'6157584'
p1976
(I2346068
I2348415
tp1977
sS'9110691'
p1978
(I2348420
I2351249
tp1979
sS'9110692'
p1980
(I2351254
I2353693
tp1981
sS'7478836'
p1982
(I2353698
I2356138
tp1983
sS'9110694'
p1984
(I2356143
I2358741
tp1985
sS'5834050'
p1986
(I2358746
I2363047
tp1987
sS'9110696'
p1988
(I2363052
I2365583
tp1989
sS'5358506'
p1990
(I2368032
I2369739
tp1991
sS'5358504'
p1992
(I2369744
I2372618
tp1993
sS'7408401'
p1994
(I2372623
I2376026
tp1995
sS'7408402'
p1996
(I2376031
I2379250
tp1997
sS'9005448'
p1998
(I1114553
I1117290
tp1999
sS'7408406'
p2000
(I2379255
I2381992
tp2001
s.